; Function Attrs: mustprogress uwtable
define noundef ptr @_ZNK6icu_7713SimpleFactory6createERKNS_13ICUServiceKeyEPKNS_10ICUServiceER10UErrorCode(ptr noundef nonnull align 8 dereferenceable(81) %0, ptr noundef nonnull align 8 dereferenceable(72) %1, ptr noundef %2, ptr noundef nonnull readonly align 4 captures(none) dereferenceable(4) %3) unnamed_addr #0 align 2 personality ptr @__gxx_personality_v0 {
  %5 = alloca %"class.icu_77::UnicodeString", align 8
  %6 = load i32, ptr %3, align 4, !tbaa !19
  %7 = icmp sgt i32 %6, 0
  br i1 %7, label %56, label %8

8:                                                ; preds = %4
  call void @llvm.lifetime.start.p0(i64 64, ptr nonnull %5) #17
  store ptr getelementptr inbounds nuw inrange(-16, 88) (i8, ptr @_ZTVN6icu_7713UnicodeStringE, i64 16), ptr %5, align 8, !tbaa !3
  %9 = getelementptr inbounds nuw i8, ptr %5, i64 8
  store i16 2, ptr %9, align 8, !tbaa !6
  %10 = load ptr, ptr %1, align 8, !tbaa !3
  %11 = getelementptr inbounds nuw i8, ptr %10, i64 40
  %12 = load ptr, ptr %11, align 8
  %13 = invoke noundef nonnull align 8 dereferenceable(64) ptr %12(ptr noundef nonnull align 8 dereferenceable(72) %1, ptr noundef nonnull align 8 dereferenceable(64) %5)
          to label %14 unwind label %54

14:                                               ; preds = %8
  %15 = getelementptr inbounds nuw i8, ptr %0, i64 16
  %16 = getelementptr inbounds nuw i8, ptr %0, i64 24
  %17 = load i16, ptr %16, align 8, !tbaa !6
  %18 = and i16 %17, 1
  %.not.i = icmp eq i16 %18, 0
  br i1 %.not.i, label %23, label %19

19:                                               ; preds = %14
  %20 = getelementptr inbounds nuw i8, ptr %13, i64 8
  %21 = load i16, ptr %20, align 8, !tbaa !6
  %22 = and i16 %21, 1
  %.not = icmp eq i16 %22, 0
  br i1 %.not, label %.sink.split, label %47

23:                                               ; preds = %14
  %24 = icmp slt i16 %17, 0
  %25 = ashr i16 %17, 5
  %26 = sext i16 %25 to i32
  %27 = getelementptr inbounds nuw i8, ptr %0, i64 28
  %28 = load i32, ptr %27, align 4
  %29 = select i1 %24, i32 %28, i32 %26
  %30 = getelementptr inbounds nuw i8, ptr %13, i64 8
  %31 = load i16, ptr %30, align 8, !tbaa !6
  %32 = icmp slt i16 %31, 0
  %33 = ashr i16 %31, 5
  %34 = sext i16 %33 to i32
  %35 = getelementptr inbounds nuw i8, ptr %13, i64 12
  %36 = load i32, ptr %35, align 4
  %37 = select i1 %32, i32 %36, i32 %34
  %38 = and i16 %31, 1
  %.not9.i = icmp eq i16 %38, 0
  %39 = icmp eq i32 %29, %37
  %or.cond.i = and i1 %.not9.i, %39
  br i1 %or.cond.i, label %40, label %.sink.split

40:                                               ; preds = %23
  %41 = and i16 %31, 2
  %.not.i.i.i = icmp eq i16 %41, 0
  %42 = getelementptr inbounds nuw i8, ptr %13, i64 10
  %43 = getelementptr inbounds nuw i8, ptr %13, i64 24
  %44 = load ptr, ptr %43, align 8
  %45 = select i1 %.not.i.i.i, ptr %44, ptr %42
  %46 = invoke noundef signext i8 @_ZNK6icu_7713UnicodeString8doEqualsEPKDsi(ptr noundef nonnull align 8 dereferenceable(64) %15, ptr noundef %45, i32 noundef %29)
          to label %_ZNK6icu_7713UnicodeStringeqERKS0_.exit unwind label %54

_ZNK6icu_7713UnicodeStringeqERKS0_.exit:          ; preds = %40
  %.not14 = icmp eq i8 %46, 0
  br i1 %.not14, label %.sink.split, label %47

47:                                               ; preds = %19, %_ZNK6icu_7713UnicodeStringeqERKS0_.exit
  %48 = getelementptr inbounds nuw i8, ptr %0, i64 8
  %49 = load ptr, ptr %48, align 8, !tbaa !10
  %50 = load ptr, ptr %2, align 8, !tbaa !3
  %51 = getelementptr inbounds nuw i8, ptr %50, i64 112
  %52 = load ptr, ptr %51, align 8
  %53 = invoke noundef ptr %52(ptr noundef nonnull align 8 dereferenceable(120) %2, ptr noundef %49)
          to label %.sink.split unwind label %54

54:                                               ; preds = %40, %47, %8
  %55 = landingpad { ptr, i32 }
          cleanup
  call void @_ZN6icu_7713UnicodeStringD1Ev(ptr noundef nonnull align 8 dereferenceable(64) %5) #17
  call void @llvm.lifetime.end.p0(i64 64, ptr nonnull %5) #17
  resume { ptr, i32 } %55

.sink.split:                                      ; preds = %47, %23, %19, %_ZNK6icu_7713UnicodeStringeqERKS0_.exit
  %.1.ph = phi ptr [ null, %_ZNK6icu_7713UnicodeStringeqERKS0_.exit ], [ null, %19 ], [ null, %23 ], [ %53, %47 ]
  call void @_ZN6icu_7713UnicodeStringD1Ev(ptr noundef nonnull align 8 dereferenceable(64) %5) #17
  call void @llvm.lifetime.end.p0(i64 64, ptr nonnull %5) #17
  br label %56

56:                                               ; preds = %.sink.split, %4
  %.1 = phi ptr [ null, %4 ], [ %.1.ph, %.sink.split ]
  ret ptr %.1
}